; Function Attrs: mustprogress uwtable
define dso_local void @_ZN4Json12PathArgumentC2EPKc(ptr noundef nonnull align 8 dereferenceable(40) %0, ptr noundef %1) unnamed_addr #10 align 2 personality ptr @__gxx_personality_v0 {
  %3 = alloca %"class.std::allocator", align 1
  call void @_ZNSaIcEC1Ev(ptr noundef nonnull align 1 dereferenceable(1) %3) #35
  %4 = invoke noundef ptr @_ZNSt7__cxx1112basic_stringIcSt11char_traitsIcESaIcEE13_M_local_dataEv(ptr noundef nonnull align 8 dereferenceable(32) %0)
          to label %.noexc unwind label %15

.noexc:                                           ; preds = %2
  invoke void @_ZNSt7__cxx1112basic_stringIcSt11char_traitsIcESaIcEE12_Alloc_hiderC1EPcRKS3_(ptr noundef nonnull align 8 dereferenceable(8) %0, ptr noundef %4, ptr noundef nonnull align 1 dereferenceable(1) %3)
          to label %.noexc3 unwind label %15

.noexc3:                                          ; preds = %.noexc
  %5 = icmp eq ptr %1, null
  br i1 %5, label %6, label %10

6:                                                ; preds = %.noexc3
  invoke void @_ZSt19__throw_logic_errorPKc(ptr noundef nonnull @.str.47) #37
          to label %7 unwind label %8

7:                                                ; preds = %6
  unreachable

8:                                                ; preds = %10, %6
  %9 = landingpad { ptr, i32 }
          cleanup
  call void @_ZNSaIcED2Ev(ptr noundef nonnull align 1 dereferenceable(1) %0) #35
  br label %.body

10:                                               ; preds = %.noexc3
  %11 = call noundef i64 @strlen(ptr noundef nonnull dereferenceable(1) %1) #35
  %12 = getelementptr inbounds i8, ptr %1, i64 %11
  invoke void @_ZNSt7__cxx1112basic_stringIcSt11char_traitsIcESaIcEE12_M_constructIPKcEEvT_S8_St20forward_iterator_tag(ptr noundef nonnull align 8 dereferenceable(32) %0, ptr noundef nonnull %1, ptr noundef nonnull %12)
          to label %_ZNSt7__cxx1112basic_stringIcSt11char_traitsIcESaIcEEC2IS3_EEPKcRKS3_.exit unwind label %8

_ZNSt7__cxx1112basic_stringIcSt11char_traitsIcESaIcEEC2IS3_EEPKcRKS3_.exit: ; preds = %10
  call void @_ZNSaIcED1Ev(ptr noundef nonnull align 1 dereferenceable(1) %3) #35
  %13 = getelementptr inbounds i8, ptr %0, i64 32
  store i32 0, ptr %13, align 8
  %14 = getelementptr inbounds i8, ptr %0, i64 36
  store i32 2, ptr %14, align 4
  ret void

15:                                               ; preds = %.noexc, %2
  %16 = landingpad { ptr, i32 }
          cleanup
  br label %.body

.body:                                            ; preds = %8, %15
  %eh.lpad-body = phi { ptr, i32 } [ %16, %15 ], [ %9, %8 ]
  call void @_ZNSaIcED1Ev(ptr noundef nonnull align 1 dereferenceable(1) %3) #35
  resume { ptr, i32 } %eh.lpad-body
}